; Function Attrs: mustprogress uwtable
define void @_ZN18FilterScriptDialog19on_okButton_clickedEv(ptr noundef nonnull align 8 dereferenceable(64) %0) local_unnamed_addr #9 align 2 personality ptr @__gxx_personality_v0 {
  %2 = alloca %class.QDebug, align 8
  %3 = alloca %class.QMessageLogger, align 8
  %4 = getelementptr inbounds i8, ptr %0, i64 8
  %5 = load ptr, ptr %4, align 8
  %6 = getelementptr inbounds i8, ptr %5, i64 16
  %7 = load ptr, ptr %6, align 8
  %8 = tail call noundef ptr @_ZNK11QMetaObject4castEP7QObject(ptr noundef nonnull align 8 dereferenceable(48) @_ZN10MainWindow16staticMetaObjectE, ptr noundef %7)
  %9 = icmp eq ptr %8, null
  br i1 %9, label %10, label %17

10:                                               ; preds = %1
  store i32 2, ptr %3, align 8
  %11 = getelementptr inbounds i8, ptr %3, i64 4
  %12 = getelementptr inbounds i8, ptr %3, i64 24
  call void @llvm.memset.p0.i64(ptr noundef nonnull align 4 dereferenceable(20) %11, i8 0, i64 20, i1 false)
  store ptr @.str.43, ptr %12, align 8
  call void @_ZNK14QMessageLogger5debugEv(ptr dead_on_unwind nonnull writable sret(%class.QDebug) align 8 %2, ptr noundef nonnull align 8 dereferenceable(32) %3)
  %13 = invoke noundef nonnull align 8 dereferenceable(8) ptr @_ZN6QDebuglsEPKc(ptr noundef nonnull align 8 dereferenceable(8) %2, ptr noundef nonnull @.str.42)
          to label %14 unwind label %15

14:                                               ; preds = %10
  call void @_ZN6QDebugD1Ev(ptr noundef nonnull align 8 dereferenceable(8) %2) #18
  br label %17

15:                                               ; preds = %10
  %16 = landingpad { ptr, i32 }
          cleanup
  call void @_ZN6QDebugD1Ev(ptr noundef nonnull align 8 dereferenceable(8) %2) #18
  resume { ptr, i32 } %16

17:                                               ; preds = %14, %1
  %18 = load ptr, ptr %0, align 8
  %19 = getelementptr inbounds i8, ptr %18, i64 440
  %20 = load ptr, ptr %19, align 8
  call void %20(ptr noundef nonnull align 8 dereferenceable(48) %0)
  ret void
}